target datalayout = "e-m:e-p270:32:32-p271:32:32-p272:64:64-i64:64-i128:128-f80:128-n8:16:32:64-S128"
target triple = "x86_64-unknown-linux-gnu"

; Function Attrs: nounwind sspstrong uwtable
define internal i64 @get_refcount_ro1(ptr noundef %refcount_array, i64 noundef %index) #0 {
entry:
  %refcount_array.addr = alloca ptr, align 8
  %index.addr = alloca i64, align 8
  store ptr %refcount_array, ptr %refcount_array.addr, align 8
  store i64 %index, ptr %index.addr, align 8
  %0 = load ptr, ptr %refcount_array.addr, align 8
  %1 = load i64, ptr %index.addr, align 8
  %div = udiv i64 %1, 4
  %arrayidx = getelementptr i8, ptr %0, i64 %div
  %2 = load i8, ptr %arrayidx, align 1
  %conv = zext i8 %2 to i32
  %3 = load i64, ptr %index.addr, align 8
  %rem = urem i64 %3, 4
  %mul = mul i64 2, %rem
  %sh_prom = trunc i64 %mul to i32
  %shr = ashr i32 %conv, %sh_prom
  %and = and i32 %shr, 3
  %conv1 = sext i32 %and to i64
  ret i64 %conv1
}