; Function Attrs: mustprogress nofree norecurse nosync nounwind sspstrong willreturn memory(argmem: read) uwtable
define internal range(i64 0, 4) i64 @get_refcount_ro1(ptr noundef readonly captures(none) %refcount_array, i64 noundef %index) #10 {
entry:
  %div2 = lshr i64 %index, 2
  %arrayidx = getelementptr i8, ptr %refcount_array, i64 %div2
  %0 = load i8, ptr %arrayidx, align 1
  %conv = zext i8 %0 to i32
  %index.tr = trunc i64 %index to i32
  %1 = shl i32 %index.tr, 1
  %sh_prom = and i32 %1, 6
  %shr = lshr i32 %conv, %sh_prom
  %and = and i32 %shr, 3
  %conv1 = zext nneg i32 %and to i64
  ret i64 %conv1
}